target datalayout = "e-m:e-p270:32:32-p271:32:32-p272:64:64-i64:64-i128:128-f80:128-n8:16:32:64-S128"
target triple = "x86_64-pc-linux-gnu"

%struct.quic_conn_st = type { %struct.quic_obj_st, ptr, ptr, ptr, ptr, ptr, ptr, ptr, ptr, %union.bio_addr_st, %struct.quic_thread_assist_st, i64, i16, i32, i32, i64, i32, i64, i32 }
%struct.quic_obj_st = type { %struct.ssl_st, ptr, ptr, ptr, ptr, ptr, i64, i8 }
%struct.ssl_st = type { i32, ptr, ptr, ptr, %struct.CRYPTO_REF_COUNT, ptr, %struct.crypto_ex_data_st }
%struct.CRYPTO_REF_COUNT = type { i32 }
%struct.crypto_ex_data_st = type { ptr, ptr }
%union.bio_addr_st = type { %struct.sockaddr_in6, [84 x i8] }
%struct.sockaddr_in6 = type { i16, i16, i32, %struct.in6_addr, i32 }
%struct.in6_addr = type { %union.anon }
%union.anon = type { [4 x i32] }
%struct.quic_thread_assist_st = type { ptr, ptr, ptr, i32, i32 }
%struct.quic_wait_for_stream_args = type { ptr, ptr, ptr, i64 }

@.str = private unnamed_addr constant [32 x i8] c"../openssl/ssl/quic/quic_impl.c\00", align 1
@__func__.quic_wait_for_stream = private unnamed_addr constant [21 x i8] c"quic_wait_for_stream\00", align 1

; Function Attrs: nounwind uwtable
define internal i32 @quic_mutation_allowed(ptr noundef %0, i32 noundef %1) #0 {
  %3 = alloca i32, align 4
  %4 = alloca ptr, align 8
  %5 = alloca i32, align 4
  store ptr %0, ptr %4, align 8, !tbaa !8
  store i32 %1, ptr %5, align 4, !tbaa !122
  %6 = load ptr, ptr %4, align 8, !tbaa !8
  %7 = getelementptr inbounds nuw %struct.quic_conn_st, ptr %6, i32 0, i32 12
  %8 = load i16, ptr %7, align 8
  %9 = lshr i16 %8, 5
  %10 = and i16 %9, 1
  %11 = zext i16 %10 to i32
  %12 = icmp ne i32 %11, 0
  br i1 %12, label %19, label %13

13:                                               ; preds = %2
  %14 = load ptr, ptr %4, align 8, !tbaa !8
  %15 = getelementptr inbounds nuw %struct.quic_conn_st, ptr %14, i32 0, i32 6
  %16 = load ptr, ptr %15, align 8, !tbaa !106
  %17 = call i32 @ossl_quic_channel_is_term_any(ptr noundef %16)
  %18 = icmp ne i32 %17, 0
  br i1 %18, label %19, label %20

19:                                               ; preds = %13, %2
  store i32 0, ptr %3, align 4
  br label %31

20:                                               ; preds = %13
  %21 = load i32, ptr %5, align 4, !tbaa !122
  %22 = icmp ne i32 %21, 0
  br i1 %22, label %23, label %30

23:                                               ; preds = %20
  %24 = load ptr, ptr %4, align 8, !tbaa !8
  %25 = getelementptr inbounds nuw %struct.quic_conn_st, ptr %24, i32 0, i32 6
  %26 = load ptr, ptr %25, align 8, !tbaa !106
  %27 = call i32 @ossl_quic_channel_is_active(ptr noundef %26)
  %28 = icmp ne i32 %27, 0
  br i1 %28, label %30, label %29

29:                                               ; preds = %23
  store i32 0, ptr %3, align 4
  br label %31

30:                                               ; preds = %23, %20
  store i32 1, ptr %3, align 4
  br label %31

31:                                               ; preds = %30, %29, %19
  %32 = load i32, ptr %3, align 4
  ret i32 %32
}

; Function Attrs: nounwind uwtable
define internal i32 @quic_wait_for_stream(ptr noundef %0) #0 {
  %2 = alloca i32, align 4
  %3 = alloca ptr, align 8
  %4 = alloca ptr, align 8
  %5 = alloca i32, align 4
  store ptr %0, ptr %3, align 8, !tbaa !167
  call void @llvm.lifetime.start.p0(i64 8, ptr %4) #10
  %6 = load ptr, ptr %3, align 8, !tbaa !167
  store ptr %6, ptr %4, align 8, !tbaa !308
  %7 = load ptr, ptr %4, align 8, !tbaa !308
  %8 = getelementptr inbounds nuw %struct.quic_wait_for_stream_args, ptr %7, i32 0, i32 0
  %9 = load ptr, ptr %8, align 8, !tbaa !303
  %10 = call i32 @quic_mutation_allowed(ptr noundef %9, i32 noundef 1)
  %11 = icmp ne i32 %10, 0
  br i1 %11, label %17, label %12

12:                                               ; preds = %1
  %13 = load ptr, ptr %4, align 8, !tbaa !308
  %14 = getelementptr inbounds nuw %struct.quic_wait_for_stream_args, ptr %13, i32 0, i32 2
  %15 = load ptr, ptr %14, align 8, !tbaa !306
  %16 = call i32 (ptr, ptr, i32, ptr, i32, ptr, ...) @quic_raise_non_normal_error(ptr noundef %15, ptr noundef @.str, i32 noundef 2046, ptr noundef @__func__.quic_wait_for_stream, i32 noundef 207, ptr noundef null)
  store i32 -1, ptr %2, align 4
  store i32 1, ptr %5, align 4
  br label %56

17:                                               ; preds = %1
  %18 = load ptr, ptr %4, align 8, !tbaa !308
  %19 = getelementptr inbounds nuw %struct.quic_wait_for_stream_args, ptr %18, i32 0, i32 0
  %20 = load ptr, ptr %19, align 8, !tbaa !303
  %21 = getelementptr inbounds nuw %struct.quic_conn_st, ptr %20, i32 0, i32 6
  %22 = load ptr, ptr %21, align 8, !tbaa !106
  %23 = call ptr @ossl_quic_channel_get_qsm(ptr noundef %22)
  %24 = load ptr, ptr %4, align 8, !tbaa !308
  %25 = getelementptr inbounds nuw %struct.quic_wait_for_stream_args, ptr %24, i32 0, i32 3
  %26 = load i64, ptr %25, align 8, !tbaa !307
  %27 = or i64 %26, 0
  %28 = call ptr @ossl_quic_stream_map_get_by_id(ptr noundef %23, i64 noundef %27)
  %29 = load ptr, ptr %4, align 8, !tbaa !308
  %30 = getelementptr inbounds nuw %struct.quic_wait_for_stream_args, ptr %29, i32 0, i32 1
  store ptr %28, ptr %30, align 8, !tbaa !305
  %31 = load ptr, ptr %4, align 8, !tbaa !308
  %32 = getelementptr inbounds nuw %struct.quic_wait_for_stream_args, ptr %31, i32 0, i32 1
  %33 = load ptr, ptr %32, align 8, !tbaa !305
  %34 = icmp eq ptr %33, null
  br i1 %34, label %35, label %49

35:                                               ; preds = %17
  %36 = load ptr, ptr %4, align 8, !tbaa !308
  %37 = getelementptr inbounds nuw %struct.quic_wait_for_stream_args, ptr %36, i32 0, i32 0
  %38 = load ptr, ptr %37, align 8, !tbaa !303
  %39 = getelementptr inbounds nuw %struct.quic_conn_st, ptr %38, i32 0, i32 6
  %40 = load ptr, ptr %39, align 8, !tbaa !106
  %41 = call ptr @ossl_quic_channel_get_qsm(ptr noundef %40)
  %42 = load ptr, ptr %4, align 8, !tbaa !308
  %43 = getelementptr inbounds nuw %struct.quic_wait_for_stream_args, ptr %42, i32 0, i32 3
  %44 = load i64, ptr %43, align 8, !tbaa !307
  %45 = or i64 %44, 2
  %46 = call ptr @ossl_quic_stream_map_get_by_id(ptr noundef %41, i64 noundef %45)
  %47 = load ptr, ptr %4, align 8, !tbaa !308
  %48 = getelementptr inbounds nuw %struct.quic_wait_for_stream_args, ptr %47, i32 0, i32 1
  store ptr %46, ptr %48, align 8, !tbaa !305
  br label %49

49:                                               ; preds = %35, %17
  %50 = load ptr, ptr %4, align 8, !tbaa !308
  %51 = getelementptr inbounds nuw %struct.quic_wait_for_stream_args, ptr %50, i32 0, i32 1
  %52 = load ptr, ptr %51, align 8, !tbaa !305
  %53 = icmp ne ptr %52, null
  br i1 %53, label %54, label %55

54:                                               ; preds = %49
  store i32 1, ptr %2, align 4
  store i32 1, ptr %5, align 4
  br label %56

55:                                               ; preds = %49
  store i32 0, ptr %2, align 4
  store i32 1, ptr %5, align 4
  br label %56

56:                                               ; preds = %55, %54, %12
  call void @llvm.lifetime.end.p0(i64 8, ptr %4) #10
  %57 = load i32, ptr %2, align 4
  ret i32 %57
}