; Function Attrs: nounwind uwtable
define internal range(i32 -1, 2) i32 @quic_wait_for_stream(ptr noundef captures(none) %0) #0 {
  %2 = load ptr, ptr %0, align 8, !tbaa !250
  %3 = getelementptr inbounds nuw i8, ptr %2, i64 336
  %4 = load i16, ptr %3, align 8
  %5 = and i16 %4, 32
  %.not.i = icmp eq i16 %5, 0
  br i1 %.not.i, label %6, label %13

6:                                                ; preds = %1
  %7 = getelementptr inbounds nuw i8, ptr %2, i64 160
  %8 = load ptr, ptr %7, align 8, !tbaa !113
  %9 = tail call i32 @ossl_quic_channel_is_term_any(ptr noundef %8) #12
  %.not4.i = icmp eq i32 %9, 0
  br i1 %.not4.i, label %10, label %13

10:                                               ; preds = %6
  %11 = load ptr, ptr %7, align 8, !tbaa !113
  %12 = tail call i32 @ossl_quic_channel_is_active(ptr noundef %11) #12
  %.not6.i = icmp eq i32 %12, 0
  br i1 %.not6.i, label %13, label %quic_mutation_allowed.exit

13:                                               ; preds = %6, %1, %10
  %14 = getelementptr inbounds nuw i8, ptr %0, i64 16
  %15 = load ptr, ptr %14, align 8, !tbaa !253
  tail call void (ptr, ptr, i32, ptr, i32, ptr, ...) @quic_raise_non_normal_error(ptr noundef %15, ptr nonnull poison, i32 noundef 2046, ptr noundef nonnull @__func__.quic_wait_for_stream, i32 noundef 207, ptr noundef null)
  br label %35

quic_mutation_allowed.exit:                       ; preds = %10
  %16 = load ptr, ptr %0, align 8, !tbaa !250
  %17 = getelementptr inbounds nuw i8, ptr %16, i64 160
  %18 = load ptr, ptr %17, align 8, !tbaa !113
  %19 = tail call ptr @ossl_quic_channel_get_qsm(ptr noundef %18) #12
  %20 = getelementptr inbounds nuw i8, ptr %0, i64 24
  %21 = load i64, ptr %20, align 8, !tbaa !254
  %22 = tail call ptr @ossl_quic_stream_map_get_by_id(ptr noundef %19, i64 noundef %21) #12
  %23 = getelementptr inbounds nuw i8, ptr %0, i64 8
  store ptr %22, ptr %23, align 8, !tbaa !252
  %24 = icmp eq ptr %22, null
  br i1 %24, label %25, label %35

25:                                               ; preds = %quic_mutation_allowed.exit
  %26 = load ptr, ptr %0, align 8, !tbaa !250
  %27 = getelementptr inbounds nuw i8, ptr %26, i64 160
  %28 = load ptr, ptr %27, align 8, !tbaa !113
  %29 = tail call ptr @ossl_quic_channel_get_qsm(ptr noundef %28) #12
  %30 = load i64, ptr %20, align 8, !tbaa !254
  %31 = or i64 %30, 2
  %32 = tail call ptr @ossl_quic_stream_map_get_by_id(ptr noundef %29, i64 noundef %31) #12
  store ptr %32, ptr %23, align 8, !tbaa !252
  %33 = icmp ne ptr %32, null
  %34 = zext i1 %33 to i32
  br label %35

35:                                               ; preds = %quic_mutation_allowed.exit, %25, %13
  %.0 = phi i32 [ -1, %13 ], [ %34, %25 ], [ 1, %quic_mutation_allowed.exit ]
  ret i32 %.0
}